                              1 ;--------------------------------------------------------
                              2 ; File Created by SDCC : free open source ANSI-C Compiler
                              3 ; Version 3.6.0 #9615 (MINGW64)
                              4 ;--------------------------------------------------------
                              5 	.module Test_Sprites
                              6 	.optsdcc -mz80
                              7 	
                              8 ;--------------------------------------------------------
                              9 ; Public variables in this module
                             10 ;--------------------------------------------------------
                             11 	.globl _main
                             12 	.globl _UnsetEarlyClock
                             13 	.globl _SetEarlyClock
                             14 	.globl _SetSpriteVisible
                             15 	.globl _SetSpritePosition
                             16 	.globl _SetSpriteColor
                             17 	.globl _SetSpritePattern
                             18 	.globl _PUTSPRITE
                             19 	.globl _CopyToVRAM
                             20 	.globl _VPOKE
                             21 	.globl _COLOR
                             22 	.globl _ClearSprites
                             23 	.globl _SetSpritesZoom
                             24 	.globl _SetSpritesSize
                             25 	.globl __LineLength
                             26 	.globl _SIN
                             27 	.globl _SPRITE_DATA
                             28 	.globl _sprcol
                             29 	.globl _text02
                             30 	.globl _text01
                             31 	.globl _System
                             32 	.globl _SCREEN0
                             33 	.globl _SCREEN1
                             34 	.globl _INKEY
                             35 	.globl _WAIT
                             36 	.globl _VPRINT
                             37 	.globl _VPOKEARRAY
                             38 	.globl _LOCATE
                             39 	.globl _PRINT
                             40 	.globl _PEEK
                             41 	.globl _PEEKW
                             42 	.globl _testSPRITES
                             43 	.globl _setSpritesPatterns
                             44 	.globl _showSprites
                             45 	.globl _testSpriteVisible
                             46 	.globl _testSpritePattern
                             47 	.globl _testSpriteColor
                             48 	.globl _testSpritePosition
                             49 ;--------------------------------------------------------
                             50 ; special function registers
                             51 ;--------------------------------------------------------
                             52 ;--------------------------------------------------------
                             53 ; ram data
                             54 ;--------------------------------------------------------
                             55 	.area _DATA
   0000                      56 __LineLength::
   0000                      57 	.ds 1
                             58 ;--------------------------------------------------------
                             59 ; ram data
                             60 ;--------------------------------------------------------
                             61 	.area _INITIALIZED
                             62 ;--------------------------------------------------------
                             63 ; absolute external ram data
                             64 ;--------------------------------------------------------
                             65 	.area _DABS (ABS)
                             66 ;--------------------------------------------------------
                             67 ; global & static initialisations
                             68 ;--------------------------------------------------------
                             69 	.area _HOME
                             70 	.area _GSINIT
                             71 	.area _GSFINAL
                             72 	.area _GSINIT
                             73 ;--------------------------------------------------------
                             74 ; Home
                             75 ;--------------------------------------------------------
                             76 	.area _HOME
                             77 	.area _HOME
                             78 ;--------------------------------------------------------
                             79 ; code
                             80 ;--------------------------------------------------------
                             81 	.area _CODE
                             82 ;src\Test_Sprites.c:138: void main(void)
                             83 ;	---------------------------------
                             84 ; Function main
                             85 ; ---------------------------------
   0000                      86 _main::
   0000 DD E5         [15]   87 	push	ix
   0002 DD 21 00 00   [14]   88 	ld	ix,#0
   0006 DD 39         [15]   89 	add	ix,sp
   0008 F5            [11]   90 	push	af
   0009 F5            [11]   91 	push	af
                             92 ;src\Test_Sprites.c:145: colorInk=PEEK(FORCLR);
   000A 21 E9 F3      [10]   93 	ld	hl,#0xf3e9
   000D E5            [11]   94 	push	hl
   000E CDr32r04      [17]   95 	call	_PEEK
   0011 F1            [10]   96 	pop	af
   0012 DD 75 FF      [19]   97 	ld	-1 (ix),l
                             98 ;src\Test_Sprites.c:146: colorBG=PEEK(BAKCLR);
   0015 21 EA F3      [10]   99 	ld	hl,#0xf3ea
   0018 E5            [11]  100 	push	hl
   0019 CDr32r04      [17]  101 	call	_PEEK
   001C F1            [10]  102 	pop	af
   001D DD 75 FE      [19]  103 	ld	-2 (ix),l
                            104 ;src\Test_Sprites.c:147: colorBDR=PEEK(BDRCLR);
   0020 21 EB F3      [10]  105 	ld	hl,#0xf3eb
   0023 E5            [11]  106 	push	hl
   0024 CDr32r04      [17]  107 	call	_PEEK
   0027 F1            [10]  108 	pop	af
   0028 DD 75 FD      [19]  109 	ld	-3 (ix),l
                            110 ;src\Test_Sprites.c:148: scrcolumns=PEEK(LINLEN);
   002B 21 B0 F3      [10]  111 	ld	hl,#0xf3b0
   002E E5            [11]  112 	push	hl
   002F CDr32r04      [17]  113 	call	_PEEK
   0032 F1            [10]  114 	pop	af
   0033 DD 75 FC      [19]  115 	ld	-4 (ix),l
                            116 ;src\Test_Sprites.c:150: PRINT(text01); 
   0036 21r9Ar00      [10]  117 	ld	hl,#_text01
   0039 E5            [11]  118 	push	hl
   003A CDr0Fr04      [17]  119 	call	_PRINT
                            120 ;src\Test_Sprites.c:151: PRINT("\n\r");
   003D 21r0Dr03      [10]  121 	ld	hl, #___str_0
   0040 E3            [19]  122 	ex	(sp),hl
   0041 CDr0Fr04      [17]  123 	call	_PRINT
                            124 ;src\Test_Sprites.c:152: PRINT(text02);
   0044 21rB7r00      [10]  125 	ld	hl, #_text02
   0047 E3            [19]  126 	ex	(sp),hl
   0048 CDr0Fr04      [17]  127 	call	_PRINT
   004B F1            [10]  128 	pop	af
                            129 ;src\Test_Sprites.c:153: INKEY();
   004C CDr6Br03      [17]  130 	call	_INKEY
                            131 ;src\Test_Sprites.c:156: SCREEN1();
   004F CDr54r03      [17]  132 	call	_SCREEN1
                            133 ;src\Test_Sprites.c:158: VPRINT(0,0,"screen 1");  
   0052 21r10r03      [10]  134 	ld	hl,#___str_1
   0055 E5            [11]  135 	push	hl
   0056 21 00 00      [10]  136 	ld	hl,#0x0000
   0059 E5            [11]  137 	push	hl
   005A CDr93r03      [17]  138 	call	_VPRINT
   005D F1            [10]  139 	pop	af
   005E F1            [10]  140 	pop	af
                            141 ;src\Test_Sprites.c:160: _LineLength=4; 
   005F 21r00r00      [10]  142 	ld	hl,#__LineLength + 0
   0062 36 04         [10]  143 	ld	(hl), #0x04
                            144 ;src\Test_Sprites.c:161: testSPRITES();
   0064 CDr59r04      [17]  145 	call	_testSPRITES
                            146 ;src\Test_Sprites.c:186: COLOR(colorInk,colorBG,colorBDR);
   0067 DD 66 FD      [19]  147 	ld	h,-3 (ix)
   006A DD 6E FE      [19]  148 	ld	l,-2 (ix)
   006D E5            [11]  149 	push	hl
   006E DD 7E FF      [19]  150 	ld	a,-1 (ix)
   0071 F5            [11]  151 	push	af
   0072 33            [ 6]  152 	inc	sp
   0073 CDr00r00      [17]  153 	call	_COLOR
   0076 F1            [10]  154 	pop	af
   0077 33            [ 6]  155 	inc	sp
                            156 ;src\Test_Sprites.c:189: if(scrcolumns<33) SCREEN1();
   0078 DD 7E FC      [19]  157 	ld	a,-4 (ix)
   007B D6 21         [ 7]  158 	sub	a, #0x21
   007D 30 05         [12]  159 	jr	NC,00102$
   007F CDr54r03      [17]  160 	call	_SCREEN1
   0082 18 03         [12]  161 	jr	00103$
   0084                     162 00102$:
                            163 ;src\Test_Sprites.c:190: else SCREEN0();
   0084 CDr3Dr03      [17]  164 	call	_SCREEN0
   0087                     165 00103$:
                            166 ;src\Test_Sprites.c:193: PRINT("End of the test...");
   0087 21r19r03      [10]  167 	ld	hl,#___str_2
   008A E5            [11]  168 	push	hl
   008B CDr0Fr04      [17]  169 	call	_PRINT
   008E F1            [10]  170 	pop	af
                            171 ;src\Test_Sprites.c:195: System(_TERM0); 
   008F AF            [ 4]  172 	xor	a, a
   0090 F5            [11]  173 	push	af
   0091 33            [ 6]  174 	inc	sp
   0092 CDr2Cr03      [17]  175 	call	_System
   0095 DD F9         [10]  176 	ld	sp,ix
   0097 DD E1         [14]  177 	pop	ix
   0099 C9            [10]  178 	ret
   009A                     179 _text01:
   009A 54 65 73 74 20 53   180 	.ascii "Test SDCC SPRITES Lib v1.3.1"
        44 43 43 20 53 50
        52 49 54 45 53 20
        4C 69 62 20 76 31
        2E 33 2E 31
   00B6 00                  181 	.db 0x00
   00B7                     182 _text02:
   00B7 50 72 65 73 73 20   183 	.ascii "Press any key"
        61 6E 79 20 6B 65
        79
   00C4 00                  184 	.db 0x00
   00C5                     185 _sprcol:
   00C5 0C                  186 	.db #0x0c	; 12
   00C6 02                  187 	.db #0x02	; 2
   00C7 03                  188 	.db #0x03	; 3
   00C8 07                  189 	.db #0x07	; 7
   00C9 06                  190 	.db #0x06	; 6
   00CA 08                  191 	.db #0x08	; 8
   00CB 09                  192 	.db #0x09	; 9
   00CC 0E                  193 	.db #0x0e	; 14
   00CD                     194 _SPRITE_DATA:
   00CD 3C                  195 	.db #0x3c	; 60
   00CE 42                  196 	.db #0x42	; 66	'B'
   00CF A5                  197 	.db #0xa5	; 165
   00D0 81                  198 	.db #0x81	; 129
   00D1 A5                  199 	.db #0xa5	; 165
   00D2 99                  200 	.db #0x99	; 153
   00D3 42                  201 	.db #0x42	; 66	'B'
   00D4 3C                  202 	.db #0x3c	; 60
   00D5 3C                  203 	.db #0x3c	; 60
   00D6 7E                  204 	.db #0x7e	; 126
   00D7 DB                  205 	.db #0xdb	; 219
   00D8 FF                  206 	.db #0xff	; 255
   00D9 FF                  207 	.db #0xff	; 255
   00DA DB                  208 	.db #0xdb	; 219
   00DB 66                  209 	.db #0x66	; 102	'f'
   00DC 3C                  210 	.db #0x3c	; 60
   00DD 6C                  211 	.db #0x6c	; 108	'l'
   00DE FE                  212 	.db #0xfe	; 254
   00DF FE                  213 	.db #0xfe	; 254
   00E0 FE                  214 	.db #0xfe	; 254
   00E1 7C                  215 	.db #0x7c	; 124
   00E2 38                  216 	.db #0x38	; 56	'8'
   00E3 10                  217 	.db #0x10	; 16
   00E4 00                  218 	.db #0x00	; 0
   00E5 10                  219 	.db #0x10	; 16
   00E6 38                  220 	.db #0x38	; 56	'8'
   00E7 7C                  221 	.db #0x7c	; 124
   00E8 FE                  222 	.db #0xfe	; 254
   00E9 7C                  223 	.db #0x7c	; 124
   00EA 38                  224 	.db #0x38	; 56	'8'
   00EB 10                  225 	.db #0x10	; 16
   00EC 00                  226 	.db #0x00	; 0
   00ED 10                  227 	.db #0x10	; 16
   00EE 38                  228 	.db #0x38	; 56	'8'
   00EF 54                  229 	.db #0x54	; 84	'T'
   00F0 FE                  230 	.db #0xfe	; 254
   00F1 54                  231 	.db #0x54	; 84	'T'
   00F2 10                  232 	.db #0x10	; 16
   00F3 38                  233 	.db #0x38	; 56	'8'
   00F4 00                  234 	.db #0x00	; 0
   00F5 10                  235 	.db #0x10	; 16
   00F6 38                  236 	.db #0x38	; 56	'8'
   00F7 7C                  237 	.db #0x7c	; 124
   00F8 FE                  238 	.db #0xfe	; 254
   00F9 FE                  239 	.db #0xfe	; 254
   00FA 10                  240 	.db #0x10	; 16
   00FB 38                  241 	.db #0x38	; 56	'8'
   00FC 00                  242 	.db #0x00	; 0
   00FD 00                  243 	.db #0x00	; 0
   00FE 00                  244 	.db #0x00	; 0
   00FF 00                  245 	.db #0x00	; 0
   0100 18                  246 	.db #0x18	; 24
   0101 18                  247 	.db #0x18	; 24
   0102 00                  248 	.db #0x00	; 0
   0103 00                  249 	.db #0x00	; 0
   0104 00                  250 	.db #0x00	; 0
   0105 FF                  251 	.db #0xff	; 255
   0106 FF                  252 	.db #0xff	; 255
   0107 FF                  253 	.db #0xff	; 255
   0108 E7                  254 	.db #0xe7	; 231
   0109 E7                  255 	.db #0xe7	; 231
   010A FF                  256 	.db #0xff	; 255
   010B FF                  257 	.db #0xff	; 255
   010C FF                  258 	.db #0xff	; 255
   010D 0F                  259 	.db #0x0f	; 15
   010E 1F                  260 	.db #0x1f	; 31
   010F 3D                  261 	.db #0x3d	; 61
   0110 3F                  262 	.db #0x3f	; 63
   0111 7B                  263 	.db #0x7b	; 123
   0112 7C                  264 	.db #0x7c	; 124
   0113 BF                  265 	.db #0xbf	; 191
   0114 BF                  266 	.db #0xbf	; 191
   0115 9F                  267 	.db #0x9f	; 159
   0116 EF                  268 	.db #0xef	; 239
   0117 6F                  269 	.db #0x6f	; 111	'o'
   0118 1F                  270 	.db #0x1f	; 31
   0119 0F                  271 	.db #0x0f	; 15
   011A 05                  272 	.db #0x05	; 5
   011B 05                  273 	.db #0x05	; 5
   011C 1D                  274 	.db #0x1d	; 29
   011D C0                  275 	.db #0xc0	; 192
   011E E0                  276 	.db #0xe0	; 224
   011F 60                  277 	.db #0x60	; 96
   0120 C0                  278 	.db #0xc0	; 192
   0121 40                  279 	.db #0x40	; 64
   0122 80                  280 	.db #0x80	; 128
   0123 80                  281 	.db #0x80	; 128
   0124 84                  282 	.db #0x84	; 132
   0125 86                  283 	.db #0x86	; 134
   0126 DE                  284 	.db #0xde	; 222
   0127 C0                  285 	.db #0xc0	; 192
   0128 C0                  286 	.db #0xc0	; 192
   0129 80                  287 	.db #0x80	; 128
   012A 00                  288 	.db #0x00	; 0
   012B 00                  289 	.db #0x00	; 0
   012C C0                  290 	.db #0xc0	; 192
   012D 05                  291 	.db #0x05	; 5
   012E 07                  292 	.db #0x07	; 7
   012F 1A                  293 	.db #0x1a	; 26
   0130 2E                  294 	.db #0x2e	; 46
   0131 6F                  295 	.db #0x6f	; 111	'o'
   0132 5B                  296 	.db #0x5b	; 91
   0133 5C                  297 	.db #0x5c	; 92
   0134 5B                  298 	.db #0x5b	; 91
   0135 5F                  299 	.db #0x5f	; 95
   0136 58                  300 	.db #0x58	; 88	'X'
   0137 6F                  301 	.db #0x6f	; 111	'o'
   0138 2D                  302 	.db #0x2d	; 45
   0139 16                  303 	.db #0x16	; 22
   013A 02                  304 	.db #0x02	; 2
   013B 02                  305 	.db #0x02	; 2
   013C 06                  306 	.db #0x06	; 6
   013D 40                  307 	.db #0x40	; 64
   013E C0                  308 	.db #0xc0	; 192
   013F B8                  309 	.db #0xb8	; 184
   0140 D4                  310 	.db #0xd4	; 212
   0141 D4                  311 	.db #0xd4	; 212
   0142 6A                  312 	.db #0x6a	; 106	'j'
   0143 EA                  313 	.db #0xea	; 234
   0144 6A                  314 	.db #0x6a	; 106	'j'
   0145 EA                  315 	.db #0xea	; 234
   0146 6A                  316 	.db #0x6a	; 106	'j'
   0147 D4                  317 	.db #0xd4	; 212
   0148 D4                  318 	.db #0xd4	; 212
   0149 F8                  319 	.db #0xf8	; 248
   014A 40                  320 	.db #0x40	; 64
   014B 40                  321 	.db #0x40	; 64
   014C 60                  322 	.db #0x60	; 96
   014D 03                  323 	.db #0x03	; 3
   014E 07                  324 	.db #0x07	; 7
   014F 4F                  325 	.db #0x4f	; 79	'O'
   0150 CF                  326 	.db #0xcf	; 207
   0151 4D                  327 	.db #0x4d	; 77	'M'
   0152 4F                  328 	.db #0x4f	; 79	'O'
   0153 2C                  329 	.db #0x2c	; 44
   0154 1E                  330 	.db #0x1e	; 30
   0155 3F                  331 	.db #0x3f	; 63
   0156 3F                  332 	.db #0x3f	; 63
   0157 3F                  333 	.db #0x3f	; 63
   0158 3F                  334 	.db #0x3f	; 63
   0159 1F                  335 	.db #0x1f	; 31
   015A 02                  336 	.db #0x02	; 2
   015B 02                  337 	.db #0x02	; 2
   015C 06                  338 	.db #0x06	; 6
   015D C0                  339 	.db #0xc0	; 192
   015E E2                  340 	.db #0xe2	; 226
   015F E6                  341 	.db #0xe6	; 230
   0160 E2                  342 	.db #0xe2	; 226
   0161 A2                  343 	.db #0xa2	; 162
   0162 F4                  344 	.db #0xf4	; 244
   0163 38                  345 	.db #0x38	; 56	'8'
   0164 7C                  346 	.db #0x7c	; 124
   0165 FE                  347 	.db #0xfe	; 254
   0166 FE                  348 	.db #0xfe	; 254
   0167 FE                  349 	.db #0xfe	; 254
   0168 FC                  350 	.db #0xfc	; 252
   0169 F8                  351 	.db #0xf8	; 248
   016A 40                  352 	.db #0x40	; 64
   016B 40                  353 	.db #0x40	; 64
   016C 60                  354 	.db #0x60	; 96
   016D 05                  355 	.db #0x05	; 5
   016E 1E                  356 	.db #0x1e	; 30
   016F 3F                  357 	.db #0x3f	; 63
   0170 6F                  358 	.db #0x6f	; 111	'o'
   0171 57                  359 	.db #0x57	; 87	'W'
   0172 6E                  360 	.db #0x6e	; 110	'n'
   0173 3F                  361 	.db #0x3f	; 63
   0174 00                  362 	.db #0x00	; 0
   0175 07                  363 	.db #0x07	; 7
   0176 05                  364 	.db #0x05	; 5
   0177 07                  365 	.db #0x07	; 7
   0178 04                  366 	.db #0x04	; 4
   0179 06                  367 	.db #0x06	; 6
   017A 03                  368 	.db #0x03	; 3
   017B 02                  369 	.db #0x02	; 2
   017C 06                  370 	.db #0x06	; 6
   017D 60                  371 	.db #0x60	; 96
   017E F8                  372 	.db #0xf8	; 248
   017F F4                  373 	.db #0xf4	; 244
   0180 EA                  374 	.db #0xea	; 234
   0181 76                  375 	.db #0x76	; 118	'v'
   0182 BE                  376 	.db #0xbe	; 190
   0183 7C                  377 	.db #0x7c	; 124
   0184 00                  378 	.db #0x00	; 0
   0185 E0                  379 	.db #0xe0	; 224
   0186 60                  380 	.db #0x60	; 96
   0187 E0                  381 	.db #0xe0	; 224
   0188 20                  382 	.db #0x20	; 32
   0189 60                  383 	.db #0x60	; 96
   018A C0                  384 	.db #0xc0	; 192
   018B 40                  385 	.db #0x40	; 64
   018C 60                  386 	.db #0x60	; 96
   018D 05                  387 	.db #0x05	; 5
   018E 07                  388 	.db #0x07	; 7
   018F 1F                  389 	.db #0x1f	; 31
   0190 3F                  390 	.db #0x3f	; 63
   0191 7F                  391 	.db #0x7f	; 127
   0192 7F                  392 	.db #0x7f	; 127
   0193 7F                  393 	.db #0x7f	; 127
   0194 7D                  394 	.db #0x7d	; 125
   0195 7F                  395 	.db #0x7f	; 127
   0196 7F                  396 	.db #0x7f	; 127
   0197 78                  397 	.db #0x78	; 120	'x'
   0198 3F                  398 	.db #0x3f	; 63
   0199 1F                  399 	.db #0x1f	; 31
   019A 04                  400 	.db #0x04	; 4
   019B 04                  401 	.db #0x04	; 4
   019C 0C                  402 	.db #0x0c	; 12
   019D 40                  403 	.db #0x40	; 64
   019E C0                  404 	.db #0xc0	; 192
   019F F0                  405 	.db #0xf0	; 240
   01A0 F8                  406 	.db #0xf8	; 248
   01A1 FC                  407 	.db #0xfc	; 252
   01A2 FC                  408 	.db #0xfc	; 252
   01A3 FC                  409 	.db #0xfc	; 252
   01A4 7C                  410 	.db #0x7c	; 124
   01A5 FC                  411 	.db #0xfc	; 252
   01A6 FC                  412 	.db #0xfc	; 252
   01A7 3C                  413 	.db #0x3c	; 60
   01A8 F8                  414 	.db #0xf8	; 248
   01A9 F0                  415 	.db #0xf0	; 240
   01AA 40                  416 	.db #0x40	; 64
   01AB 40                  417 	.db #0x40	; 64
   01AC 60                  418 	.db #0x60	; 96
   01AD 07                  419 	.db #0x07	; 7
   01AE 1F                  420 	.db #0x1f	; 31
   01AF 3F                  421 	.db #0x3f	; 63
   01B0 3F                  422 	.db #0x3f	; 63
   01B1 7F                  423 	.db #0x7f	; 127
   01B2 71                  424 	.db #0x71	; 113	'q'
   01B3 7F                  425 	.db #0x7f	; 127
   01B4 7F                  426 	.db #0x7f	; 127
   01B5 7F                  427 	.db #0x7f	; 127
   01B6 7E                  428 	.db #0x7e	; 126
   01B7 3E                  429 	.db #0x3e	; 62
   01B8 3F                  430 	.db #0x3f	; 63
   01B9 1F                  431 	.db #0x1f	; 31
   01BA 07                  432 	.db #0x07	; 7
   01BB 02                  433 	.db #0x02	; 2
   01BC 06                  434 	.db #0x06	; 6
   01BD E0                  435 	.db #0xe0	; 224
   01BE F8                  436 	.db #0xf8	; 248
   01BF FC                  437 	.db #0xfc	; 252
   01C0 FC                  438 	.db #0xfc	; 252
   01C1 FE                  439 	.db #0xfe	; 254
   01C2 8E                  440 	.db #0x8e	; 142
   01C3 FE                  441 	.db #0xfe	; 254
   01C4 FE                  442 	.db #0xfe	; 254
   01C5 FE                  443 	.db #0xfe	; 254
   01C6 7E                  444 	.db #0x7e	; 126
   01C7 7C                  445 	.db #0x7c	; 124
   01C8 FC                  446 	.db #0xfc	; 252
   01C9 F8                  447 	.db #0xf8	; 248
   01CA E0                  448 	.db #0xe0	; 224
   01CB 40                  449 	.db #0x40	; 64
   01CC 60                  450 	.db #0x60	; 96
   01CD 00                  451 	.db #0x00	; 0
   01CE 07                  452 	.db #0x07	; 7
   01CF 1F                  453 	.db #0x1f	; 31
   01D0 3F                  454 	.db #0x3f	; 63
   01D1 7F                  455 	.db #0x7f	; 127
   01D2 71                  456 	.db #0x71	; 113	'q'
   01D3 FF                  457 	.db #0xff	; 255
   01D4 FF                  458 	.db #0xff	; 255
   01D5 7B                  459 	.db #0x7b	; 123
   01D6 7C                  460 	.db #0x7c	; 124
   01D7 3F                  461 	.db #0x3f	; 63
   01D8 1F                  462 	.db #0x1f	; 31
   01D9 07                  463 	.db #0x07	; 7
   01DA 02                  464 	.db #0x02	; 2
   01DB 02                  465 	.db #0x02	; 2
   01DC 06                  466 	.db #0x06	; 6
   01DD 00                  467 	.db #0x00	; 0
   01DE E0                  468 	.db #0xe0	; 224
   01DF F8                  469 	.db #0xf8	; 248
   01E0 FC                  470 	.db #0xfc	; 252
   01E1 FE                  471 	.db #0xfe	; 254
   01E2 8E                  472 	.db #0x8e	; 142
   01E3 FF                  473 	.db #0xff	; 255
   01E4 FF                  474 	.db #0xff	; 255
   01E5 DE                  475 	.db #0xde	; 222
   01E6 3E                  476 	.db #0x3e	; 62
   01E7 FC                  477 	.db #0xfc	; 252
   01E8 F8                  478 	.db #0xf8	; 248
   01E9 E0                  479 	.db #0xe0	; 224
   01EA 40                  480 	.db #0x40	; 64
   01EB 40                  481 	.db #0x40	; 64
   01EC 60                  482 	.db #0x60	; 96
   01ED 05                  483 	.db #0x05	; 5
   01EE 1E                  484 	.db #0x1e	; 30
   01EF 3F                  485 	.db #0x3f	; 63
   01F0 6F                  486 	.db #0x6f	; 111	'o'
   01F1 57                  487 	.db #0x57	; 87	'W'
   01F2 6E                  488 	.db #0x6e	; 110	'n'
   01F3 3F                  489 	.db #0x3f	; 63
   01F4 00                  490 	.db #0x00	; 0
   01F5 07                  491 	.db #0x07	; 7
   01F6 05                  492 	.db #0x05	; 5
   01F7 07                  493 	.db #0x07	; 7
   01F8 04                  494 	.db #0x04	; 4
   01F9 06                  495 	.db #0x06	; 6
   01FA 03                  496 	.db #0x03	; 3
   01FB 02                  497 	.db #0x02	; 2
   01FC 06                  498 	.db #0x06	; 6
   01FD 60                  499 	.db #0x60	; 96
   01FE F8                  500 	.db #0xf8	; 248
   01FF F4                  501 	.db #0xf4	; 244
   0200 EA                  502 	.db #0xea	; 234
   0201 76                  503 	.db #0x76	; 118	'v'
   0202 BE                  504 	.db #0xbe	; 190
   0203 7C                  505 	.db #0x7c	; 124
   0204 00                  506 	.db #0x00	; 0
   0205 E0                  507 	.db #0xe0	; 224
   0206 60                  508 	.db #0x60	; 96
   0207 E0                  509 	.db #0xe0	; 224
   0208 20                  510 	.db #0x20	; 32
   0209 60                  511 	.db #0x60	; 96
   020A C0                  512 	.db #0xc0	; 192
   020B 40                  513 	.db #0x40	; 64
   020C 60                  514 	.db #0x60	; 96
   020D                     515 _SIN:
   020D 50                  516 	.db #0x50	; 80	'P'
   020E 52                  517 	.db #0x52	; 82	'R'
   020F 53                  518 	.db #0x53	; 83	'S'
   0210 55                  519 	.db #0x55	; 85	'U'
   0211 56                  520 	.db #0x56	; 86	'V'
   0212 58                  521 	.db #0x58	; 88	'X'
   0213 59                  522 	.db #0x59	; 89	'Y'
   0214 5B                  523 	.db #0x5b	; 91
   0215 5D                  524 	.db #0x5d	; 93
   0216 5E                  525 	.db #0x5e	; 94
   0217 60                  526 	.db #0x60	; 96
   0218 61                  527 	.db #0x61	; 97	'a'
   0219 63                  528 	.db #0x63	; 99	'c'
   021A 64                  529 	.db #0x64	; 100	'd'
   021B 66                  530 	.db #0x66	; 102	'f'
   021C 67                  531 	.db #0x67	; 103	'g'
   021D 69                  532 	.db #0x69	; 105	'i'
   021E 6A                  533 	.db #0x6a	; 106	'j'
   021F 6B                  534 	.db #0x6b	; 107	'k'
   0220 6D                  535 	.db #0x6d	; 109	'm'
   0221 6E                  536 	.db #0x6e	; 110	'n'
   0222 70                  537 	.db #0x70	; 112	'p'
   0223 71                  538 	.db #0x71	; 113	'q'
   0224 72                  539 	.db #0x72	; 114	'r'
   0225 74                  540 	.db #0x74	; 116	't'
   0226 75                  541 	.db #0x75	; 117	'u'
   0227 76                  542 	.db #0x76	; 118	'v'
   0228 78                  543 	.db #0x78	; 120	'x'
   0229 79                  544 	.db #0x79	; 121	'y'
   022A 7A                  545 	.db #0x7a	; 122	'z'
   022B 7B                  546 	.db #0x7b	; 123
   022C 7C                  547 	.db #0x7c	; 124
   022D 7D                  548 	.db #0x7d	; 125
   022E 7E                  549 	.db #0x7e	; 126
   022F 80                  550 	.db #0x80	; 128
   0230 81                  551 	.db #0x81	; 129
   0231 82                  552 	.db #0x82	; 130
   0232 83                  553 	.db #0x83	; 131
   0233 84                  554 	.db #0x84	; 132
   0234 84                  555 	.db #0x84	; 132
   0235 85                  556 	.db #0x85	; 133
   0236 86                  557 	.db #0x86	; 134
   0237 87                  558 	.db #0x87	; 135
   0238 88                  559 	.db #0x88	; 136
   0239 89                  560 	.db #0x89	; 137
   023A 89                  561 	.db #0x89	; 137
   023B 8A                  562 	.db #0x8a	; 138
   023C 8B                  563 	.db #0x8b	; 139
   023D 8B                  564 	.db #0x8b	; 139
   023E 8C                  565 	.db #0x8c	; 140
   023F 8C                  566 	.db #0x8c	; 140
   0240 8D                  567 	.db #0x8d	; 141
   0241 8D                  568 	.db #0x8d	; 141
   0242 8E                  569 	.db #0x8e	; 142
   0243 8E                  570 	.db #0x8e	; 142
   0244 8F                  571 	.db #0x8f	; 143
   0245 8F                  572 	.db #0x8f	; 143
   0246 8F                  573 	.db #0x8f	; 143
   0247 8F                  574 	.db #0x8f	; 143
   0248 90                  575 	.db #0x90	; 144
   0249 90                  576 	.db #0x90	; 144
   024A 90                  577 	.db #0x90	; 144
   024B 90                  578 	.db #0x90	; 144
   024C 90                  579 	.db #0x90	; 144
   024D 90                  580 	.db #0x90	; 144
   024E 90                  581 	.db #0x90	; 144
   024F 90                  582 	.db #0x90	; 144
   0250 90                  583 	.db #0x90	; 144
   0251 90                  584 	.db #0x90	; 144
   0252 8F                  585 	.db #0x8f	; 143
   0253 8F                  586 	.db #0x8f	; 143
   0254 8F                  587 	.db #0x8f	; 143
   0255 8F                  588 	.db #0x8f	; 143
   0256 8E                  589 	.db #0x8e	; 142
   0257 8E                  590 	.db #0x8e	; 142
   0258 8E                  591 	.db #0x8e	; 142
   0259 8D                  592 	.db #0x8d	; 141
   025A 8D                  593 	.db #0x8d	; 141
   025B 8C                  594 	.db #0x8c	; 140
   025C 8C                  595 	.db #0x8c	; 140
   025D 8B                  596 	.db #0x8b	; 139
   025E 8A                  597 	.db #0x8a	; 138
   025F 8A                  598 	.db #0x8a	; 138
   0260 89                  599 	.db #0x89	; 137
   0261 88                  600 	.db #0x88	; 136
   0262 87                  601 	.db #0x87	; 135
   0263 87                  602 	.db #0x87	; 135
   0264 86                  603 	.db #0x86	; 134
   0265 85                  604 	.db #0x85	; 133
   0266 84                  605 	.db #0x84	; 132
   0267 83                  606 	.db #0x83	; 131
   0268 82                  607 	.db #0x82	; 130
   0269 81                  608 	.db #0x81	; 129
   026A 80                  609 	.db #0x80	; 128
   026B 7F                  610 	.db #0x7f	; 127
   026C 7E                  611 	.db #0x7e	; 126
   026D 7D                  612 	.db #0x7d	; 125
   026E 7C                  613 	.db #0x7c	; 124
   026F 7B                  614 	.db #0x7b	; 123
   0270 79                  615 	.db #0x79	; 121	'y'
   0271 78                  616 	.db #0x78	; 120	'x'
   0272 77                  617 	.db #0x77	; 119	'w'
   0273 76                  618 	.db #0x76	; 118	'v'
   0274 74                  619 	.db #0x74	; 116	't'
   0275 73                  620 	.db #0x73	; 115	's'
   0276 72                  621 	.db #0x72	; 114	'r'
   0277 70                  622 	.db #0x70	; 112	'p'
   0278 6F                  623 	.db #0x6f	; 111	'o'
   0279 6E                  624 	.db #0x6e	; 110	'n'
   027A 6C                  625 	.db #0x6c	; 108	'l'
   027B 6B                  626 	.db #0x6b	; 107	'k'
   027C 69                  627 	.db #0x69	; 105	'i'
   027D 68                  628 	.db #0x68	; 104	'h'
   027E 66                  629 	.db #0x66	; 102	'f'
   027F 65                  630 	.db #0x65	; 101	'e'
   0280 63                  631 	.db #0x63	; 99	'c'
   0281 62                  632 	.db #0x62	; 98	'b'
   0282 60                  633 	.db #0x60	; 96
   0283 5F                  634 	.db #0x5f	; 95
   0284 5D                  635 	.db #0x5d	; 93
   0285 5C                  636 	.db #0x5c	; 92
   0286 5A                  637 	.db #0x5a	; 90	'Z'
   0287 59                  638 	.db #0x59	; 89	'Y'
   0288 57                  639 	.db #0x57	; 87	'W'
   0289 56                  640 	.db #0x56	; 86	'V'
   028A 54                  641 	.db #0x54	; 84	'T'
   028B 52                  642 	.db #0x52	; 82	'R'
   028C 51                  643 	.db #0x51	; 81	'Q'
   028D 4F                  644 	.db #0x4f	; 79	'O'
   028E 4E                  645 	.db #0x4e	; 78	'N'
   028F 4C                  646 	.db #0x4c	; 76	'L'
   0290 4A                  647 	.db #0x4a	; 74	'J'
   0291 49                  648 	.db #0x49	; 73	'I'
   0292 47                  649 	.db #0x47	; 71	'G'
   0293 46                  650 	.db #0x46	; 70	'F'
   0294 44                  651 	.db #0x44	; 68	'D'
   0295 43                  652 	.db #0x43	; 67	'C'
   0296 41                  653 	.db #0x41	; 65	'A'
   0297 40                  654 	.db #0x40	; 64
   0298 3E                  655 	.db #0x3e	; 62
   0299 3D                  656 	.db #0x3d	; 61
   029A 3B                  657 	.db #0x3b	; 59
   029B 3A                  658 	.db #0x3a	; 58
   029C 38                  659 	.db #0x38	; 56	'8'
   029D 37                  660 	.db #0x37	; 55	'7'
   029E 35                  661 	.db #0x35	; 53	'5'
   029F 34                  662 	.db #0x34	; 52	'4'
   02A0 32                  663 	.db #0x32	; 50	'2'
   02A1 31                  664 	.db #0x31	; 49	'1'
   02A2 30                  665 	.db #0x30	; 48	'0'
   02A3 2E                  666 	.db #0x2e	; 46
   02A4 2D                  667 	.db #0x2d	; 45
   02A5 2C                  668 	.db #0x2c	; 44
   02A6 2A                  669 	.db #0x2a	; 42
   02A7 29                  670 	.db #0x29	; 41
   02A8 28                  671 	.db #0x28	; 40
   02A9 27                  672 	.db #0x27	; 39
   02AA 25                  673 	.db #0x25	; 37
   02AB 24                  674 	.db #0x24	; 36
   02AC 23                  675 	.db #0x23	; 35
   02AD 22                  676 	.db #0x22	; 34
   02AE 21                  677 	.db #0x21	; 33
   02AF 20                  678 	.db #0x20	; 32
   02B0 1F                  679 	.db #0x1f	; 31
   02B1 1E                  680 	.db #0x1e	; 30
   02B2 1D                  681 	.db #0x1d	; 29
   02B3 1C                  682 	.db #0x1c	; 28
   02B4 1B                  683 	.db #0x1b	; 27
   02B5 1A                  684 	.db #0x1a	; 26
   02B6 19                  685 	.db #0x19	; 25
   02B7 19                  686 	.db #0x19	; 25
   02B8 18                  687 	.db #0x18	; 24
   02B9 17                  688 	.db #0x17	; 23
   02BA 16                  689 	.db #0x16	; 22
   02BB 16                  690 	.db #0x16	; 22
   02BC 15                  691 	.db #0x15	; 21
   02BD 14                  692 	.db #0x14	; 20
   02BE 14                  693 	.db #0x14	; 20
   02BF 13                  694 	.db #0x13	; 19
   02C0 13                  695 	.db #0x13	; 19
   02C1 12                  696 	.db #0x12	; 18
   02C2 12                  697 	.db #0x12	; 18
   02C3 12                  698 	.db #0x12	; 18
   02C4 11                  699 	.db #0x11	; 17
   02C5 11                  700 	.db #0x11	; 17
   02C6 11                  701 	.db #0x11	; 17
   02C7 11                  702 	.db #0x11	; 17
   02C8 10                  703 	.db #0x10	; 16
   02C9 10                  704 	.db #0x10	; 16
   02CA 10                  705 	.db #0x10	; 16
   02CB 10                  706 	.db #0x10	; 16
   02CC 10                  707 	.db #0x10	; 16
   02CD 10                  708 	.db #0x10	; 16
   02CE 10                  709 	.db #0x10	; 16
   02CF 10                  710 	.db #0x10	; 16
   02D0 10                  711 	.db #0x10	; 16
   02D1 10                  712 	.db #0x10	; 16
   02D2 11                  713 	.db #0x11	; 17
   02D3 11                  714 	.db #0x11	; 17
   02D4 11                  715 	.db #0x11	; 17
   02D5 11                  716 	.db #0x11	; 17
   02D6 12                  717 	.db #0x12	; 18
   02D7 12                  718 	.db #0x12	; 18
   02D8 13                  719 	.db #0x13	; 19
   02D9 13                  720 	.db #0x13	; 19
   02DA 14                  721 	.db #0x14	; 20
   02DB 14                  722 	.db #0x14	; 20
   02DC 15                  723 	.db #0x15	; 21
   02DD 15                  724 	.db #0x15	; 21
   02DE 16                  725 	.db #0x16	; 22
   02DF 17                  726 	.db #0x17	; 23
   02E0 17                  727 	.db #0x17	; 23
   02E1 18                  728 	.db #0x18	; 24
   02E2 19                  729 	.db #0x19	; 25
   02E3 1A                  730 	.db #0x1a	; 26
   02E4 1B                  731 	.db #0x1b	; 27
   02E5 1C                  732 	.db #0x1c	; 28
   02E6 1C                  733 	.db #0x1c	; 28
   02E7 1D                  734 	.db #0x1d	; 29
   02E8 1E                  735 	.db #0x1e	; 30
   02E9 1F                  736 	.db #0x1f	; 31
   02EA 20                  737 	.db #0x20	; 32
   02EB 22                  738 	.db #0x22	; 34
   02EC 23                  739 	.db #0x23	; 35
   02ED 24                  740 	.db #0x24	; 36
   02EE 25                  741 	.db #0x25	; 37
   02EF 26                  742 	.db #0x26	; 38
   02F0 27                  743 	.db #0x27	; 39
   02F1 28                  744 	.db #0x28	; 40
   02F2 2A                  745 	.db #0x2a	; 42
   02F3 2B                  746 	.db #0x2b	; 43
   02F4 2C                  747 	.db #0x2c	; 44
   02F5 2E                  748 	.db #0x2e	; 46
   02F6 2F                  749 	.db #0x2f	; 47
   02F7 30                  750 	.db #0x30	; 48	'0'
   02F8 32                  751 	.db #0x32	; 50	'2'
   02F9 33                  752 	.db #0x33	; 51	'3'
   02FA 35                  753 	.db #0x35	; 53	'5'
   02FB 36                  754 	.db #0x36	; 54	'6'
   02FC 37                  755 	.db #0x37	; 55	'7'
   02FD 39                  756 	.db #0x39	; 57	'9'
   02FE 3A                  757 	.db #0x3a	; 58
   02FF 3C                  758 	.db #0x3c	; 60
   0300 3D                  759 	.db #0x3d	; 61
   0301 3F                  760 	.db #0x3f	; 63
   0302 40                  761 	.db #0x40	; 64
   0303 42                  762 	.db #0x42	; 66	'B'
   0304 43                  763 	.db #0x43	; 67	'C'
   0305 45                  764 	.db #0x45	; 69	'E'
   0306 47                  765 	.db #0x47	; 71	'G'
   0307 48                  766 	.db #0x48	; 72	'H'
   0308 4A                  767 	.db #0x4a	; 74	'J'
   0309 4B                  768 	.db #0x4b	; 75	'K'
   030A 4D                  769 	.db #0x4d	; 77	'M'
   030B 4E                  770 	.db #0x4e	; 78	'N'
   030C 50                  771 	.db #0x50	; 80	'P'
   030D                     772 ___str_0:
   030D 0A                  773 	.db 0x0a
   030E 0D                  774 	.db 0x0d
   030F 00                  775 	.db 0x00
   0310                     776 ___str_1:
   0310 73 63 72 65 65 6E   777 	.ascii "screen 1"
        20 31
   0318 00                  778 	.db 0x00
   0319                     779 ___str_2:
   0319 45 6E 64 20 6F 66   780 	.ascii "End of the test..."
        20 74 68 65 20 74
        65 73 74 2E 2E 2E
   032B 00                  781 	.db 0x00
                            782 ;src\Test_Sprites.c:202: void System(char code)
                            783 ;	---------------------------------
                            784 ; Function System
                            785 ; ---------------------------------
   032C                     786 _System::
                            787 ;src\Test_Sprites.c:214: __endasm; 
   032C DD E5         [15]  788 	push	IX
   032E DD 21 00 00   [14]  789 	ld	IX,#0
   0332 DD 39         [15]  790 	add	IX,SP
   0334 DD 4E 04      [19]  791 	ld	C,4(ix)
   0337 CD 05 00      [17]  792 	call	0x0005
   033A DD E1         [14]  793 	pop	IX
   033C C9            [10]  794 	ret
                            795 ;src\Test_Sprites.c:219: void SCREEN0()
                            796 ;	---------------------------------
                            797 ; Function SCREEN0
                            798 ; ---------------------------------
   033D                     799 _SCREEN0::
                            800 ;src\Test_Sprites.c:235: __endasm;
   033D DD E5         [15]  801 	push	IX
   033F 3A B0 F3      [13]  802 	ld	A,(#0xF3B0)
   0342 32 AE F3      [13]  803 	ld	(#0xF3AE),A ;copy columns seting with WIDTH to 0xF3AE system var
   0345 DD 21 6C 00   [14]  804 	ld	IX,#0x006C
   0349 FD 2A C0 FC   [20]  805 	ld	IY,(0xFCC1 -1)
   034D CD 1C 00      [17]  806 	call	0x001C
   0350 FB            [ 4]  807 	ei
   0351 DD E1         [14]  808 	pop	IX
   0353 C9            [10]  809 	ret
                            810 ;src\Test_Sprites.c:240: void SCREEN1()
                            811 ;	---------------------------------
                            812 ; Function SCREEN1
                            813 ; ---------------------------------
   0354                     814 _SCREEN1::
                            815 ;src\Test_Sprites.c:256: __endasm;
   0354 DD E5         [15]  816 	push	IX
   0356 3A B0 F3      [13]  817 	ld	A,(#0xF3B0) ;get a last value set with WIDTH function
   0359 32 AF F3      [13]  818 	ld	(#0xF3AF),A ;set system variable
   035C DD 21 6F 00   [14]  819 	ld	IX,#0x006F
   0360 FD 2A C0 FC   [20]  820 	ld	IY,(0xFCC1 -1)
   0364 CD 1C 00      [17]  821 	call	0x001C
   0367 FB            [ 4]  822 	ei
   0368 DD E1         [14]  823 	pop	IX
   036A C9            [10]  824 	ret
                            825 ;src\Test_Sprites.c:265: char INKEY(){
                            826 ;	---------------------------------
                            827 ; Function INKEY
                            828 ; ---------------------------------
   036B                     829 _INKEY::
                            830 ;src\Test_Sprites.c:278: __endasm;
   036B DD E5         [15]  831 	push	IX
   036D DD 21 00 00   [14]  832 	ld	IX,#0
   0371 DD 39         [15]  833 	add	IX,SP
                            834 ;call	0x009F
   0373 DD 21 9F 00   [14]  835 	ld	IX,#0x009F
   0377 FD 2A C0 FC   [20]  836 	ld	IY,(#0xFCC1 -1)
   037B CD 1C 00      [17]  837 	call	0x001C ;acces to MSX BIOS
   037E 6F            [ 4]  838 	ld	L,A
   037F DD E1         [14]  839 	pop	IX
   0381 C9            [10]  840 	ret
                            841 ;src\Test_Sprites.c:285: void WAIT(uint cicles)
                            842 ;	---------------------------------
                            843 ; Function WAIT
                            844 ; ---------------------------------
   0382                     845 _WAIT::
                            846 ;src\Test_Sprites.c:288: for(i=0;i<cicles;i++) HALT;
   0382 01 00 00      [10]  847 	ld	bc,#0x0000
   0385                     848 00103$:
   0385 21 02 00      [10]  849 	ld	hl,#2
   0388 39            [11]  850 	add	hl,sp
   0389 79            [ 4]  851 	ld	a,c
   038A 96            [ 7]  852 	sub	a, (hl)
   038B 78            [ 4]  853 	ld	a,b
   038C 23            [ 6]  854 	inc	hl
   038D 9E            [ 7]  855 	sbc	a, (hl)
   038E D0            [11]  856 	ret	NC
   038F 76            [ 4]  857 	halt	
   0390 03            [ 6]  858 	inc	bc
   0391 18 F2         [12]  859 	jr	00103$
                            860 ;src\Test_Sprites.c:295: void VPRINT(byte column, byte line, char* text)
                            861 ;	---------------------------------
                            862 ; Function VPRINT
                            863 ; ---------------------------------
   0393                     864 _VPRINT::
   0393 DD E5         [15]  865 	push	ix
   0395 DD 21 00 00   [14]  866 	ld	ix,#0
   0399 DD 39         [15]  867 	add	ix,sp
                            868 ;src\Test_Sprites.c:297: uint vaddr = BASE10 + (line*32)+column; // calcula la posicion en la VRAM
   039B DD 6E 05      [19]  869 	ld	l,5 (ix)
   039E 26 00         [ 7]  870 	ld	h,#0x00
   03A0 29            [11]  871 	add	hl, hl
   03A1 29            [11]  872 	add	hl, hl
   03A2 29            [11]  873 	add	hl, hl
   03A3 29            [11]  874 	add	hl, hl
   03A4 29            [11]  875 	add	hl, hl
   03A5 01 00 18      [10]  876 	ld	bc,#0x1800
   03A8 09            [11]  877 	add	hl,bc
   03A9 DD 4E 04      [19]  878 	ld	c,4 (ix)
   03AC 06 00         [ 7]  879 	ld	b,#0x00
   03AE 09            [11]  880 	add	hl,bc
                            881 ;src\Test_Sprites.c:298: VPOKEARRAY(vaddr, text);
   03AF DD 4E 06      [19]  882 	ld	c,6 (ix)
   03B2 DD 46 07      [19]  883 	ld	b,7 (ix)
   03B5 C5            [11]  884 	push	bc
   03B6 E5            [11]  885 	push	hl
   03B7 CDrBFr03      [17]  886 	call	_VPOKEARRAY
   03BA F1            [10]  887 	pop	af
   03BB F1            [10]  888 	pop	af
   03BC DD E1         [14]  889 	pop	ix
   03BE C9            [10]  890 	ret
                            891 ;src\Test_Sprites.c:303: void VPOKEARRAY(uint vaddr, char* text)
                            892 ;	---------------------------------
                            893 ; Function VPOKEARRAY
                            894 ; ---------------------------------
   03BF                     895 _VPOKEARRAY::
   03BF DD E5         [15]  896 	push	ix
   03C1 DD 21 00 00   [14]  897 	ld	ix,#0
   03C5 DD 39         [15]  898 	add	ix,sp
                            899 ;src\Test_Sprites.c:305: while(*(text)) VPOKE(vaddr++,*(text++));
   03C7 DD 4E 06      [19]  900 	ld	c,6 (ix)
   03CA DD 46 07      [19]  901 	ld	b,7 (ix)
   03CD DD 5E 04      [19]  902 	ld	e,4 (ix)
   03D0 DD 56 05      [19]  903 	ld	d,5 (ix)
   03D3                     904 00101$:
   03D3 0A            [ 7]  905 	ld	a,(bc)
   03D4 B7            [ 4]  906 	or	a, a
   03D5 28 15         [12]  907 	jr	Z,00104$
   03D7 67            [ 4]  908 	ld	h,a
   03D8 03            [ 6]  909 	inc	bc
   03D9 D5            [11]  910 	push	de
   03DA FD E1         [14]  911 	pop	iy
   03DC 13            [ 6]  912 	inc	de
   03DD C5            [11]  913 	push	bc
   03DE D5            [11]  914 	push	de
   03DF E5            [11]  915 	push	hl
   03E0 33            [ 6]  916 	inc	sp
   03E1 FD E5         [15]  917 	push	iy
   03E3 CDr00r00      [17]  918 	call	_VPOKE
   03E6 F1            [10]  919 	pop	af
   03E7 33            [ 6]  920 	inc	sp
   03E8 D1            [10]  921 	pop	de
   03E9 C1            [10]  922 	pop	bc
   03EA 18 E7         [12]  923 	jr	00101$
   03EC                     924 00104$:
   03EC DD E1         [14]  925 	pop	ix
   03EE C9            [10]  926 	ret
                            927 ;src\Test_Sprites.c:316: void LOCATE(char x, char y)
                            928 ;	---------------------------------
                            929 ; Function LOCATE
                            930 ; ---------------------------------
   03EF                     931 _LOCATE::
                            932 ;src\Test_Sprites.c:337: __endasm;
   03EF DD E5         [15]  933 	push	IX
   03F1 DD 21 00 00   [14]  934 	ld	IX,#0
   03F5 DD 39         [15]  935 	add	IX,SP
   03F7 DD 7E 04      [19]  936 	ld	A,4(IX) ;x
   03FA 3C            [ 4]  937 	inc	A ;incrementa las posiciones para que se situen correctamente en la pantalla
   03FB 67            [ 4]  938 	ld	H,A
   03FC DD 7E 05      [19]  939 	ld	A,5(IX) ;y
   03FF 3C            [ 4]  940 	inc	A
   0400 6F            [ 4]  941 	ld	L,A
                            942 ;call	0x00C6
   0401 DD 21 C6 00   [14]  943 	ld	IX,#0x00C6
   0405 FD 2A C0 FC   [20]  944 	ld	IY,(#0xFCC1 -1)
   0409 CD 1C 00      [17]  945 	call	0x001C ;acces to MSX BIOS
   040C DD E1         [14]  946 	pop	IX
   040E C9            [10]  947 	ret
                            948 ;src\Test_Sprites.c:346: void PRINT(char* text)
                            949 ;	---------------------------------
                            950 ; Function PRINT
                            951 ; ---------------------------------
   040F                     952 _PRINT::
                            953 ;src\Test_Sprites.c:371: __endasm; 
   040F DD E5         [15]  954 	push	IX
   0411 DD 21 00 00   [14]  955 	ld	IX,#0
   0415 DD 39         [15]  956 	add	IX,SP
   0417 DD 6E 04      [19]  957 	ld	L,4(ix)
   041A DD 66 05      [19]  958 	ld	H,5(ix)
   041D                     959 	nextCHAR:
   041D 7E            [ 7]  960 	ld	A,(HL)
   041E B7            [ 4]  961 	or	A
   041F 28 0E         [12]  962 	jr	Z,ENDnext
                            963 ;call	0x00A2
   0421 DD 21 A2 00   [14]  964 	ld	IX,#0x00A2
   0425 FD 2A C0 FC   [20]  965 	ld	IY,(#0xFCC1 -1)
   0429 CD 1C 00      [17]  966 	call	0x001C ;acces to MSX BIOS
   042C 23            [ 6]  967 	inc	HL
   042D 18 EE         [12]  968 	jr	nextCHAR
   042F                     969 	ENDnext:
   042F DD E1         [14]  970 	pop	IX
   0431 C9            [10]  971 	ret
                            972 ;src\Test_Sprites.c:376: char PEEK(uint address)
                            973 ;	---------------------------------
                            974 ; Function PEEK
                            975 ; ---------------------------------
   0432                     976 _PEEK::
                            977 ;src\Test_Sprites.c:390: __endasm;
   0432 DD E5         [15]  978 	push	IX
   0434 DD 21 00 00   [14]  979 	ld	IX,#0
   0438 DD 39         [15]  980 	add	IX,SP
   043A DD 6E 04      [19]  981 	ld	L,4(IX)
   043D DD 66 05      [19]  982 	ld	H,5(IX)
   0440 6E            [ 7]  983 	ld	L,(HL)
   0441 DD E1         [14]  984 	pop	IX
   0443 C9            [10]  985 	ret
                            986 ;src\Test_Sprites.c:395: uint PEEKW(uint address)
                            987 ;	---------------------------------
                            988 ; Function PEEKW
                            989 ; ---------------------------------
   0444                     990 _PEEKW::
                            991 ;src\Test_Sprites.c:411: __endasm;
   0444 DD E5         [15]  992 	push	IX
   0446 DD 21 00 00   [14]  993 	ld	IX,#0
   044A DD 39         [15]  994 	add	IX,SP
   044C DD 6E 04      [19]  995 	ld	L,4(ix)
   044F DD 66 05      [19]  996 	ld	H,5(ix)
   0452 5E            [ 7]  997 	ld	E,(HL)
   0453 23            [ 6]  998 	inc	HL
   0454 56            [ 7]  999 	ld	D,(HL)
   0455 EB            [ 4] 1000 	ex	DE,HL
   0456 DD E1         [14] 1001 	pop	IX
   0458 C9            [10] 1002 	ret
                           1003 ;src\Test_Sprites.c:419: void testSPRITES()
                           1004 ;	---------------------------------
                           1005 ; Function testSPRITES
                           1006 ; ---------------------------------
   0459                    1007 _testSPRITES::
                           1008 ;src\Test_Sprites.c:423: setSpritesPatterns();
   0459 CDr14r07      [17] 1009 	call	_setSpritesPatterns
                           1010 ;src\Test_Sprites.c:425: VPRINT(0,posY++, "-----------------Basic Functions");
   045C 21rA5r05      [10] 1011 	ld	hl,#___str_5
   045F E5            [11] 1012 	push	hl
   0460 21 00 02      [10] 1013 	ld	hl,#0x0200
   0463 E5            [11] 1014 	push	hl
   0464 CDr93r03      [17] 1015 	call	_VPRINT
   0467 F1            [10] 1016 	pop	af
                           1017 ;src\Test_Sprites.c:429: VPRINT(0,posY++, "SetSpritesSize(0) SPRITES 8x8");
   0468 21rC6r05      [10] 1018 	ld	hl, #___str_6
   046B E3            [19] 1019 	ex	(sp),hl
   046C 21 00 03      [10] 1020 	ld	hl,#0x0300
   046F E5            [11] 1021 	push	hl
   0470 CDr93r03      [17] 1022 	call	_VPRINT
   0473 F1            [10] 1023 	pop	af
   0474 F1            [10] 1024 	pop	af
                           1025 ;src\Test_Sprites.c:430: SetSpritesSize(0);
   0475 AF            [ 4] 1026 	xor	a, a
   0476 F5            [11] 1027 	push	af
   0477 33            [ 6] 1028 	inc	sp
   0478 CDr00r00      [17] 1029 	call	_SetSpritesSize
   047B 33            [ 6] 1030 	inc	sp
                           1031 ;src\Test_Sprites.c:431: SetSpritesZoom(false);  
   047C AF            [ 4] 1032 	xor	a, a
   047D F5            [11] 1033 	push	af
   047E 33            [ 6] 1034 	inc	sp
   047F CDr00r00      [17] 1035 	call	_SetSpritesZoom
   0482 33            [ 6] 1036 	inc	sp
                           1037 ;src\Test_Sprites.c:432: showSprites(0);
   0483 AF            [ 4] 1038 	xor	a, a
   0484 F5            [11] 1039 	push	af
   0485 33            [ 6] 1040 	inc	sp
   0486 CDr2Ar07      [17] 1041 	call	_showSprites
   0489 33            [ 6] 1042 	inc	sp
                           1043 ;src\Test_Sprites.c:433: WAIT(50);
   048A 21 32 00      [10] 1044 	ld	hl,#0x0032
   048D E5            [11] 1045 	push	hl
   048E CDr82r03      [17] 1046 	call	_WAIT
                           1047 ;src\Test_Sprites.c:437: VPRINT(0,posY++, "SetSpritesSize(1) SPRITES 16x16");
   0491 21rE4r05      [10] 1048 	ld	hl, #___str_7
   0494 E3            [19] 1049 	ex	(sp),hl
   0495 21 00 04      [10] 1050 	ld	hl,#0x0400
   0498 E5            [11] 1051 	push	hl
   0499 CDr93r03      [17] 1052 	call	_VPRINT
   049C F1            [10] 1053 	pop	af
                           1054 ;src\Test_Sprites.c:438: SetSpritesSize(1);
   049D 26 01         [ 7] 1055 	ld	h,#0x01
   049F E3            [19] 1056 	ex	(sp),hl
   04A0 33            [ 6] 1057 	inc	sp
   04A1 CDr00r00      [17] 1058 	call	_SetSpritesSize
   04A4 33            [ 6] 1059 	inc	sp
                           1060 ;src\Test_Sprites.c:439: showSprites(2);
   04A5 3E 02         [ 7] 1061 	ld	a,#0x02
   04A7 F5            [11] 1062 	push	af
   04A8 33            [ 6] 1063 	inc	sp
   04A9 CDr2Ar07      [17] 1064 	call	_showSprites
   04AC 33            [ 6] 1065 	inc	sp
                           1066 ;src\Test_Sprites.c:440: WAIT(50);
   04AD 21 32 00      [10] 1067 	ld	hl,#0x0032
   04B0 E5            [11] 1068 	push	hl
   04B1 CDr82r03      [17] 1069 	call	_WAIT
                           1070 ;src\Test_Sprites.c:444: VPRINT(0,posY++, "SetSpritesZoom(true) SPRITES x2");
   04B4 21r04r06      [10] 1071 	ld	hl, #___str_8
   04B7 E3            [19] 1072 	ex	(sp),hl
   04B8 21 00 05      [10] 1073 	ld	hl,#0x0500
   04BB E5            [11] 1074 	push	hl
   04BC CDr93r03      [17] 1075 	call	_VPRINT
   04BF F1            [10] 1076 	pop	af
                           1077 ;src\Test_Sprites.c:445: SetSpritesZoom(true);
   04C0 26 01         [ 7] 1078 	ld	h,#0x01
   04C2 E3            [19] 1079 	ex	(sp),hl
   04C3 33            [ 6] 1080 	inc	sp
   04C4 CDr00r00      [17] 1081 	call	_SetSpritesZoom
   04C7 33            [ 6] 1082 	inc	sp
                           1083 ;src\Test_Sprites.c:446: WAIT(50);
   04C8 21 32 00      [10] 1084 	ld	hl,#0x0032
   04CB E5            [11] 1085 	push	hl
   04CC CDr82r03      [17] 1086 	call	_WAIT
                           1087 ;src\Test_Sprites.c:449: VPRINT(0,posY++, "ClearSprites()");
   04CF 21r24r06      [10] 1088 	ld	hl, #___str_9
   04D2 E3            [19] 1089 	ex	(sp),hl
   04D3 21 00 06      [10] 1090 	ld	hl,#0x0600
   04D6 E5            [11] 1091 	push	hl
   04D7 CDr93r03      [17] 1092 	call	_VPRINT
   04DA F1            [10] 1093 	pop	af
   04DB F1            [10] 1094 	pop	af
                           1095 ;src\Test_Sprites.c:450: ClearSprites();
   04DC CDr00r00      [17] 1096 	call	_ClearSprites
                           1097 ;src\Test_Sprites.c:451: WAIT(100);
   04DF 21 64 00      [10] 1098 	ld	hl,#0x0064
   04E2 E5            [11] 1099 	push	hl
   04E3 CDr82r03      [17] 1100 	call	_WAIT
   04E6 F1            [10] 1101 	pop	af
                           1102 ;src\Test_Sprites.c:453: setSpritesPatterns();
   04E7 CDr14r07      [17] 1103 	call	_setSpritesPatterns
                           1104 ;src\Test_Sprites.c:454: VPRINT(0,posY++, "PUTSPRITE(plane,x,y,color,nSPR)");
   04EA 21r33r06      [10] 1105 	ld	hl,#___str_10
   04ED E5            [11] 1106 	push	hl
   04EE 21 00 07      [10] 1107 	ld	hl,#0x0700
   04F1 E5            [11] 1108 	push	hl
   04F2 CDr93r03      [17] 1109 	call	_VPRINT
   04F5 F1            [10] 1110 	pop	af
                           1111 ;src\Test_Sprites.c:455: showSprites(2);                                                                           
   04F6 26 02         [ 7] 1112 	ld	h,#0x02
   04F8 E3            [19] 1113 	ex	(sp),hl
   04F9 33            [ 6] 1114 	inc	sp
   04FA CDr2Ar07      [17] 1115 	call	_showSprites
   04FD 33            [ 6] 1116 	inc	sp
                           1117 ;src\Test_Sprites.c:457: WAIT(50);
   04FE 21 32 00      [10] 1118 	ld	hl,#0x0032
   0501 E5            [11] 1119 	push	hl
   0502 CDr82r03      [17] 1120 	call	_WAIT
                           1121 ;src\Test_Sprites.c:459: VPRINT(0,posY++, "--------------Extended Functions");
   0505 21r53r06      [10] 1122 	ld	hl, #___str_11
   0508 E3            [19] 1123 	ex	(sp),hl
   0509 21 00 09      [10] 1124 	ld	hl,#0x0900
   050C E5            [11] 1125 	push	hl
   050D CDr93r03      [17] 1126 	call	_VPRINT
   0510 F1            [10] 1127 	pop	af
                           1128 ;src\Test_Sprites.c:461: VPRINT(0,posY++, "SetSpriteVisible(plane,state)");
   0511 21r74r06      [10] 1129 	ld	hl, #___str_12
   0514 E3            [19] 1130 	ex	(sp),hl
   0515 21 00 0A      [10] 1131 	ld	hl,#0x0a00
   0518 E5            [11] 1132 	push	hl
   0519 CDr93r03      [17] 1133 	call	_VPRINT
   051C F1            [10] 1134 	pop	af
   051D F1            [10] 1135 	pop	af
                           1136 ;src\Test_Sprites.c:462: testSpriteVisible();
   051E CDr8Br07      [17] 1137 	call	_testSpriteVisible
                           1138 ;src\Test_Sprites.c:464: VPRINT(0,posY++, "SetSpritePattern(plane,nSPR)"); 
   0521 21r92r06      [10] 1139 	ld	hl,#___str_13
   0524 E5            [11] 1140 	push	hl
   0525 21 00 0B      [10] 1141 	ld	hl,#0x0b00
   0528 E5            [11] 1142 	push	hl
   0529 CDr93r03      [17] 1143 	call	_VPRINT
   052C F1            [10] 1144 	pop	af
   052D F1            [10] 1145 	pop	af
                           1146 ;src\Test_Sprites.c:465: testSpritePattern();
   052E CDrCBr07      [17] 1147 	call	_testSpritePattern
                           1148 ;src\Test_Sprites.c:467: VPRINT(0,posY++, "SetSpriteColor(plane,color)"); 
   0531 21rAFr06      [10] 1149 	ld	hl,#___str_14
   0534 E5            [11] 1150 	push	hl
   0535 21 00 0C      [10] 1151 	ld	hl,#0x0c00
   0538 E5            [11] 1152 	push	hl
   0539 CDr93r03      [17] 1153 	call	_VPRINT
   053C F1            [10] 1154 	pop	af
   053D F1            [10] 1155 	pop	af
                           1156 ;src\Test_Sprites.c:468: testSpriteColor();
   053E CDrE7r07      [17] 1157 	call	_testSpriteColor
                           1158 ;src\Test_Sprites.c:470: VPRINT(0,posY++, "SetSpritePosition(plane,x,y)");
   0541 21rCBr06      [10] 1159 	ld	hl,#___str_15
   0544 E5            [11] 1160 	push	hl
   0545 21 00 0D      [10] 1161 	ld	hl,#0x0d00
   0548 E5            [11] 1162 	push	hl
   0549 CDr93r03      [17] 1163 	call	_VPRINT
   054C F1            [10] 1164 	pop	af
   054D F1            [10] 1165 	pop	af
                           1166 ;src\Test_Sprites.c:471: testSpritePosition();
   054E CDr03r08      [17] 1167 	call	_testSpritePosition
                           1168 ;src\Test_Sprites.c:473: WAIT(50);
   0551 21 32 00      [10] 1169 	ld	hl,#0x0032
   0554 E5            [11] 1170 	push	hl
   0555 CDr82r03      [17] 1171 	call	_WAIT
                           1172 ;src\Test_Sprites.c:475: VPRINT(0,posY++, "SetEarlyClock(plane)");
   0558 21rE8r06      [10] 1173 	ld	hl, #___str_16
   055B E3            [19] 1174 	ex	(sp),hl
   055C 21 00 0E      [10] 1175 	ld	hl,#0x0e00
   055F E5            [11] 1176 	push	hl
   0560 CDr93r03      [17] 1177 	call	_VPRINT
   0563 F1            [10] 1178 	pop	af
                           1179 ;src\Test_Sprites.c:476: SetEarlyClock(7);
   0564 26 07         [ 7] 1180 	ld	h,#0x07
   0566 E3            [19] 1181 	ex	(sp),hl
   0567 33            [ 6] 1182 	inc	sp
   0568 CDr00r00      [17] 1183 	call	_SetEarlyClock
   056B 33            [ 6] 1184 	inc	sp
                           1185 ;src\Test_Sprites.c:477: WAIT(50);
   056C 21 32 00      [10] 1186 	ld	hl,#0x0032
   056F E5            [11] 1187 	push	hl
   0570 CDr82r03      [17] 1188 	call	_WAIT
                           1189 ;src\Test_Sprites.c:479: VPRINT(0,posY++, "UnsetEarlyClock(plane)");
   0573 21rFDr06      [10] 1190 	ld	hl, #___str_17
   0576 E3            [19] 1191 	ex	(sp),hl
   0577 21 00 0F      [10] 1192 	ld	hl,#0x0f00
   057A E5            [11] 1193 	push	hl
   057B CDr93r03      [17] 1194 	call	_VPRINT
   057E F1            [10] 1195 	pop	af
                           1196 ;src\Test_Sprites.c:480: UnsetEarlyClock(7);
   057F 26 07         [ 7] 1197 	ld	h,#0x07
   0581 E3            [19] 1198 	ex	(sp),hl
   0582 33            [ 6] 1199 	inc	sp
   0583 CDr00r00      [17] 1200 	call	_UnsetEarlyClock
   0586 33            [ 6] 1201 	inc	sp
                           1202 ;src\Test_Sprites.c:481: WAIT(50);
   0587 21 32 00      [10] 1203 	ld	hl,#0x0032
   058A E5            [11] 1204 	push	hl
   058B CDr82r03      [17] 1205 	call	_WAIT
                           1206 ;src\Test_Sprites.c:484: VPRINT(0,posY, text02);
   058E 21rB7r00      [10] 1207 	ld	hl, #_text02
   0591 E3            [19] 1208 	ex	(sp),hl
   0592 21 00 13      [10] 1209 	ld	hl,#0x1300
   0595 E5            [11] 1210 	push	hl
   0596 CDr93r03      [17] 1211 	call	_VPRINT
   0599 F1            [10] 1212 	pop	af
                           1213 ;src\Test_Sprites.c:485: LOCATE(14,posY);
   059A 21 0E 13      [10] 1214 	ld	hl, #0x130e
   059D E3            [19] 1215 	ex	(sp),hl
   059E CDrEFr03      [17] 1216 	call	_LOCATE
   05A1 F1            [10] 1217 	pop	af
                           1218 ;src\Test_Sprites.c:486: INKEY();
                           1219 ;src\Test_Sprites.c:488: return;
   05A2 C3r6Br03      [10] 1220 	jp  _INKEY
   05A5                    1221 ___str_5:
   05A5 2D 2D 2D 2D 2D 2D  1222 	.ascii "-----------------Basic Functions"
        2D 2D 2D 2D 2D 2D
        2D 2D 2D 2D 2D 42
        61 73 69 63 20 46
        75 6E 63 74 69 6F
        6E 73
   05C5 00                 1223 	.db 0x00
   05C6                    1224 ___str_6:
   05C6 53 65 74 53 70 72  1225 	.ascii "SetSpritesSize(0) SPRITES 8x8"
        69 74 65 73 53 69
        7A 65 28 30 29 20
        53 50 52 49 54 45
        53 20 38 78 38
   05E3 00                 1226 	.db 0x00
   05E4                    1227 ___str_7:
   05E4 53 65 74 53 70 72  1228 	.ascii "SetSpritesSize(1) SPRITES 16x16"
        69 74 65 73 53 69
        7A 65 28 31 29 20
        53 50 52 49 54 45
        53 20 31 36 78 31
        36
   0603 00                 1229 	.db 0x00
   0604                    1230 ___str_8:
   0604 53 65 74 53 70 72  1231 	.ascii "SetSpritesZoom(true) SPRITES x2"
        69 74 65 73 5A 6F
        6F 6D 28 74 72 75
        65 29 20 53 50 52
        49 54 45 53 20 78
        32
   0623 00                 1232 	.db 0x00
   0624                    1233 ___str_9:
   0624 43 6C 65 61 72 53  1234 	.ascii "ClearSprites()"
        70 72 69 74 65 73
        28 29
   0632 00                 1235 	.db 0x00
   0633                    1236 ___str_10:
   0633 50 55 54 53 50 52  1237 	.ascii "PUTSPRITE(plane,x,y,color,nSPR)"
        49 54 45 28 70 6C
        61 6E 65 2C 78 2C
        79 2C 63 6F 6C 6F
        72 2C 6E 53 50 52
        29
   0652 00                 1238 	.db 0x00
   0653                    1239 ___str_11:
   0653 2D 2D 2D 2D 2D 2D  1240 	.ascii "--------------Extended Functions"
        2D 2D 2D 2D 2D 2D
        2D 2D 45 78 74 65
        6E 64 65 64 20 46
        75 6E 63 74 69 6F
        6E 73
   0673 00                 1241 	.db 0x00
   0674                    1242 ___str_12:
   0674 53 65 74 53 70 72  1243 	.ascii "SetSpriteVisible(plane,state)"
        69 74 65 56 69 73
        69 62 6C 65 28 70
        6C 61 6E 65 2C 73
        74 61 74 65 29
   0691 00                 1244 	.db 0x00
   0692                    1245 ___str_13:
   0692 53 65 74 53 70 72  1246 	.ascii "SetSpritePattern(plane,nSPR)"
        69 74 65 50 61 74
        74 65 72 6E 28 70
        6C 61 6E 65 2C 6E
        53 50 52 29
   06AE 00                 1247 	.db 0x00
   06AF                    1248 ___str_14:
   06AF 53 65 74 53 70 72  1249 	.ascii "SetSpriteColor(plane,color)"
        69 74 65 43 6F 6C
        6F 72 28 70 6C 61
        6E 65 2C 63 6F 6C
        6F 72 29
   06CA 00                 1250 	.db 0x00
   06CB                    1251 ___str_15:
   06CB 53 65 74 53 70 72  1252 	.ascii "SetSpritePosition(plane,x,y)"
        69 74 65 50 6F 73
        69 74 69 6F 6E 28
        70 6C 61 6E 65 2C
        78 2C 79 29
   06E7 00                 1253 	.db 0x00
   06E8                    1254 ___str_16:
   06E8 53 65 74 45 61 72  1255 	.ascii "SetEarlyClock(plane)"
        6C 79 43 6C 6F 63
        6B 28 70 6C 61 6E
        65 29
   06FC 00                 1256 	.db 0x00
   06FD                    1257 ___str_17:
   06FD 55 6E 73 65 74 45  1258 	.ascii "UnsetEarlyClock(plane)"
        61 72 6C 79 43 6C
        6F 63 6B 28 70 6C
        61 6E 65 29
   0713 00                 1259 	.db 0x00
                           1260 ;src\Test_Sprites.c:495: void setSpritesPatterns()
                           1261 ;	---------------------------------
                           1262 ; Function setSpritesPatterns
                           1263 ; ---------------------------------
   0714                    1264 _setSpritesPatterns::
                           1265 ;src\Test_Sprites.c:497: HALT;
   0714 76            [ 4] 1266 	halt	
                           1267 ;src\Test_Sprites.c:498: CopyToVRAM((uint) SPRITE_DATA,BASE14,32*10);
   0715 01rCDr00      [10] 1268 	ld	bc,#_SPRITE_DATA+0
   0718 21 40 01      [10] 1269 	ld	hl,#0x0140
   071B E5            [11] 1270 	push	hl
   071C 21 00 38      [10] 1271 	ld	hl,#0x3800
   071F E5            [11] 1272 	push	hl
   0720 C5            [11] 1273 	push	bc
   0721 CDr00r00      [17] 1274 	call	_CopyToVRAM
   0724 21 06 00      [10] 1275 	ld	hl,#6
   0727 39            [11] 1276 	add	hl,sp
   0728 F9            [ 6] 1277 	ld	sp,hl
   0729 C9            [10] 1278 	ret
                           1279 ;src\Test_Sprites.c:504: void showSprites(char offset)
                           1280 ;	---------------------------------
                           1281 ; Function showSprites
                           1282 ; ---------------------------------
   072A                    1283 _showSprites::
   072A DD E5         [15] 1284 	push	ix
   072C DD 21 00 00   [14] 1285 	ld	ix,#0
   0730 DD 39         [15] 1286 	add	ix,sp
   0732 F5            [11] 1287 	push	af
                           1288 ;src\Test_Sprites.c:506: char X=0,Y=3;
                           1289 ;src\Test_Sprites.c:509: for(i=0;i<8;i++)
   0733 01 00 03      [10] 1290 	ld	bc,#0x0300
   0736 DD 36 FE 00   [19] 1291 	ld	-2 (ix),#0x00
   073A                    1292 00104$:
                           1293 ;src\Test_Sprites.c:511: PUTSPRITE(i, X*32, Y*32, sprcol[i], i+offset);
   073A DD 7E FE      [19] 1294 	ld	a,-2 (ix)
   073D DD 86 04      [19] 1295 	add	a, 4 (ix)
   0740 5F            [ 4] 1296 	ld	e,a
   0741 DD 7E FE      [19] 1297 	ld	a,-2 (ix)
   0744 C6rC5         [ 7] 1298 	add	a, #<(_sprcol)
   0746 6F            [ 4] 1299 	ld	l,a
   0747 3E 00         [ 7] 1300 	ld	a,#0x00
   0749 CEs00         [ 7] 1301 	adc	a, #>(_sprcol)
   074B 67            [ 4] 1302 	ld	h,a
   074C 66            [ 7] 1303 	ld	h,(hl)
   074D 78            [ 4] 1304 	ld	a,b
   074E 0F            [ 4] 1305 	rrca
   074F 0F            [ 4] 1306 	rrca
   0750 0F            [ 4] 1307 	rrca
   0751 E6 E0         [ 7] 1308 	and	a,#0xe0
   0753 57            [ 4] 1309 	ld	d,a
   0754 79            [ 4] 1310 	ld	a,c
   0755 0F            [ 4] 1311 	rrca
   0756 0F            [ 4] 1312 	rrca
   0757 0F            [ 4] 1313 	rrca
   0758 E6 E0         [ 7] 1314 	and	a,#0xe0
   075A DD 77 FF      [19] 1315 	ld	-1 (ix),a
   075D C5            [11] 1316 	push	bc
   075E 7B            [ 4] 1317 	ld	a,e
   075F F5            [11] 1318 	push	af
   0760 33            [ 6] 1319 	inc	sp
   0761 E5            [11] 1320 	push	hl
   0762 33            [ 6] 1321 	inc	sp
   0763 D5            [11] 1322 	push	de
   0764 33            [ 6] 1323 	inc	sp
   0765 DD 66 FF      [19] 1324 	ld	h,-1 (ix)
   0768 DD 6E FE      [19] 1325 	ld	l,-2 (ix)
   076B E5            [11] 1326 	push	hl
   076C CDr00r00      [17] 1327 	call	_PUTSPRITE
   076F F1            [10] 1328 	pop	af
   0770 F1            [10] 1329 	pop	af
   0771 33            [ 6] 1330 	inc	sp
   0772 C1            [10] 1331 	pop	bc
                           1332 ;src\Test_Sprites.c:512: X++;
   0773 0C            [ 4] 1333 	inc	c
                           1334 ;src\Test_Sprites.c:513: if(X==_LineLength)
   0774 3Ar00r00      [13] 1335 	ld	a,(#__LineLength + 0)
                           1336 ;src\Test_Sprites.c:515: X=0;
   0777 91            [ 4] 1337 	sub	a,c
   0778 20 02         [12] 1338 	jr	NZ,00105$
   077A 4F            [ 4] 1339 	ld	c,a
                           1340 ;src\Test_Sprites.c:516: Y++;
   077B 04            [ 4] 1341 	inc	b
   077C                    1342 00105$:
                           1343 ;src\Test_Sprites.c:509: for(i=0;i<8;i++)
   077C DD 34 FE      [23] 1344 	inc	-2 (ix)
   077F DD 7E FE      [19] 1345 	ld	a,-2 (ix)
   0782 D6 08         [ 7] 1346 	sub	a, #0x08
   0784 38 B4         [12] 1347 	jr	C,00104$
                           1348 ;src\Test_Sprites.c:520: return;
   0786 DD F9         [10] 1349 	ld	sp, ix
   0788 DD E1         [14] 1350 	pop	ix
   078A C9            [10] 1351 	ret
                           1352 ;src\Test_Sprites.c:526: void testSpriteVisible()
                           1353 ;	---------------------------------
                           1354 ; Function testSpriteVisible
                           1355 ; ---------------------------------
   078B                    1356 _testSpriteVisible::
                           1357 ;src\Test_Sprites.c:530: SetSpriteVisible(0,false);
   078B 21 00 00      [10] 1358 	ld	hl,#0x0000
   078E E5            [11] 1359 	push	hl
   078F CDr00r00      [17] 1360 	call	_SetSpriteVisible
   0792 F1            [10] 1361 	pop	af
                           1362 ;src\Test_Sprites.c:532: for(i=0;i<8;i++)
   0793 0E 00         [ 7] 1363 	ld	c,#0x00
                           1364 ;src\Test_Sprites.c:534: for(o=0;o<8;o++)
   0795                    1365 00113$:
   0795 06 00         [ 7] 1366 	ld	b,#0x00
   0797                    1367 00106$:
                           1368 ;src\Test_Sprites.c:536: if (o==i) SetSpriteVisible(o,true);
   0797 79            [ 4] 1369 	ld	a,c
   0798 90            [ 4] 1370 	sub	a, b
   0799 20 0E         [12] 1371 	jr	NZ,00102$
   079B C5            [11] 1372 	push	bc
   079C 3E 01         [ 7] 1373 	ld	a,#0x01
   079E F5            [11] 1374 	push	af
   079F 33            [ 6] 1375 	inc	sp
   07A0 C5            [11] 1376 	push	bc
   07A1 33            [ 6] 1377 	inc	sp
   07A2 CDr00r00      [17] 1378 	call	_SetSpriteVisible
   07A5 F1            [10] 1379 	pop	af
   07A6 C1            [10] 1380 	pop	bc
   07A7 18 0B         [12] 1381 	jr	00107$
   07A9                    1382 00102$:
                           1383 ;src\Test_Sprites.c:537: else SetSpriteVisible(o,false);  
   07A9 C5            [11] 1384 	push	bc
   07AA AF            [ 4] 1385 	xor	a, a
   07AB F5            [11] 1386 	push	af
   07AC 33            [ 6] 1387 	inc	sp
   07AD C5            [11] 1388 	push	bc
   07AE 33            [ 6] 1389 	inc	sp
   07AF CDr00r00      [17] 1390 	call	_SetSpriteVisible
   07B2 F1            [10] 1391 	pop	af
   07B3 C1            [10] 1392 	pop	bc
   07B4                    1393 00107$:
                           1394 ;src\Test_Sprites.c:534: for(o=0;o<8;o++)
   07B4 04            [ 4] 1395 	inc	b
   07B5 78            [ 4] 1396 	ld	a,b
   07B6 D6 08         [ 7] 1397 	sub	a, #0x08
   07B8 38 DD         [12] 1398 	jr	C,00106$
                           1399 ;src\Test_Sprites.c:539: WAIT(25);  
   07BA C5            [11] 1400 	push	bc
   07BB 21 19 00      [10] 1401 	ld	hl,#0x0019
   07BE E5            [11] 1402 	push	hl
   07BF CDr82r03      [17] 1403 	call	_WAIT
   07C2 F1            [10] 1404 	pop	af
   07C3 C1            [10] 1405 	pop	bc
                           1406 ;src\Test_Sprites.c:532: for(i=0;i<8;i++)
   07C4 0C            [ 4] 1407 	inc	c
   07C5 79            [ 4] 1408 	ld	a,c
   07C6 D6 08         [ 7] 1409 	sub	a, #0x08
   07C8 38 CB         [12] 1410 	jr	C,00113$
                           1411 ;src\Test_Sprites.c:542: return;
   07CA C9            [10] 1412 	ret
                           1413 ;src\Test_Sprites.c:550: void testSpritePattern()
                           1414 ;	---------------------------------
                           1415 ; Function testSpritePattern
                           1416 ; ---------------------------------
   07CB                    1417 _testSpritePattern::
                           1418 ;src\Test_Sprites.c:555: for(i=2;i<10;i++)
   07CB 06 02         [ 7] 1419 	ld	b,#0x02
   07CD                    1420 00102$:
                           1421 ;src\Test_Sprites.c:557: SetSpritePattern(7, i);
   07CD C5            [11] 1422 	push	bc
   07CE C5            [11] 1423 	push	bc
   07CF 33            [ 6] 1424 	inc	sp
   07D0 3E 07         [ 7] 1425 	ld	a,#0x07
   07D2 F5            [11] 1426 	push	af
   07D3 33            [ 6] 1427 	inc	sp
   07D4 CDr00r00      [17] 1428 	call	_SetSpritePattern
   07D7 21 19 00      [10] 1429 	ld	hl, #0x0019
   07DA E3            [19] 1430 	ex	(sp),hl
   07DB CDr82r03      [17] 1431 	call	_WAIT
   07DE F1            [10] 1432 	pop	af
   07DF C1            [10] 1433 	pop	bc
                           1434 ;src\Test_Sprites.c:555: for(i=2;i<10;i++)
   07E0 04            [ 4] 1435 	inc	b
   07E1 78            [ 4] 1436 	ld	a,b
   07E2 D6 0A         [ 7] 1437 	sub	a, #0x0a
   07E4 38 E7         [12] 1438 	jr	C,00102$
                           1439 ;src\Test_Sprites.c:561: return;
   07E6 C9            [10] 1440 	ret
                           1441 ;src\Test_Sprites.c:567: void testSpriteColor()
                           1442 ;	---------------------------------
                           1443 ; Function testSpriteColor
                           1444 ; ---------------------------------
   07E7                    1445 _testSpriteColor::
                           1446 ;src\Test_Sprites.c:572: for(i=0;i<16;i++)
   07E7 06 00         [ 7] 1447 	ld	b,#0x00
   07E9                    1448 00102$:
                           1449 ;src\Test_Sprites.c:574: SetSpriteColor(7, i);
   07E9 C5            [11] 1450 	push	bc
   07EA C5            [11] 1451 	push	bc
   07EB 33            [ 6] 1452 	inc	sp
   07EC 3E 07         [ 7] 1453 	ld	a,#0x07
   07EE F5            [11] 1454 	push	af
   07EF 33            [ 6] 1455 	inc	sp
   07F0 CDr00r00      [17] 1456 	call	_SetSpriteColor
   07F3 21 19 00      [10] 1457 	ld	hl, #0x0019
   07F6 E3            [19] 1458 	ex	(sp),hl
   07F7 CDr82r03      [17] 1459 	call	_WAIT
   07FA F1            [10] 1460 	pop	af
   07FB C1            [10] 1461 	pop	bc
                           1462 ;src\Test_Sprites.c:572: for(i=0;i<16;i++)
   07FC 04            [ 4] 1463 	inc	b
   07FD 78            [ 4] 1464 	ld	a,b
   07FE D6 10         [ 7] 1465 	sub	a, #0x10
   0800 38 E7         [12] 1466 	jr	C,00102$
                           1467 ;src\Test_Sprites.c:578: return;
   0802 C9            [10] 1468 	ret
                           1469 ;src\Test_Sprites.c:584: void testSpritePosition()
                           1470 ;	---------------------------------
                           1471 ; Function testSpritePosition
                           1472 ; ---------------------------------
   0803                    1473 _testSpritePosition::
   0803 DD E5         [15] 1474 	push	ix
   0805 DD 21 00 00   [14] 1475 	ld	ix,#0
   0809 DD 39         [15] 1476 	add	ix,sp
   080B 3B            [ 6] 1477 	dec	sp
                           1478 ;src\Test_Sprites.c:590: SetSpriteColor(7, 8);  
   080C 21 07 08      [10] 1479 	ld	hl,#0x0807
   080F E5            [11] 1480 	push	hl
   0810 CDr00r00      [17] 1481 	call	_SetSpriteColor
   0813 F1            [10] 1482 	pop	af
                           1483 ;src\Test_Sprites.c:592: for(i=0;i<660;i++)
   0814 DD 36 FF 40   [19] 1484 	ld	-1 (ix),#0x40
   0818 0E 00         [ 7] 1485 	ld	c,#0x00
   081A 11 00 00      [10] 1486 	ld	de,#0x0000
   081D                    1487 00102$:
                           1488 ;src\Test_Sprites.c:594: HALT;
   081D 76            [ 4] 1489 	halt	
                           1490 ;src\Test_Sprites.c:595: SetSpritePosition(7, SIN[gradX], SIN[gradY]);
   081E 21r0Dr02      [10] 1491 	ld	hl,#_SIN
   0821 06 00         [ 7] 1492 	ld	b,#0x00
   0823 09            [11] 1493 	add	hl, bc
   0824 46            [ 7] 1494 	ld	b,(hl)
   0825 3Er0D         [ 7] 1495 	ld	a,#<(_SIN)
   0827 DD 86 FF      [19] 1496 	add	a, -1 (ix)
   082A 6F            [ 4] 1497 	ld	l,a
   082B 3Es02         [ 7] 1498 	ld	a,#>(_SIN)
   082D CE 00         [ 7] 1499 	adc	a, #0x00
   082F 67            [ 4] 1500 	ld	h,a
   0830 7E            [ 7] 1501 	ld	a,(hl)
   0831 C5            [11] 1502 	push	bc
   0832 D5            [11] 1503 	push	de
   0833 C5            [11] 1504 	push	bc
   0834 33            [ 6] 1505 	inc	sp
   0835 57            [ 4] 1506 	ld	d,a
   0836 1E 07         [ 7] 1507 	ld	e,#0x07
   0838 D5            [11] 1508 	push	de
   0839 CDr00r00      [17] 1509 	call	_SetSpritePosition
   083C F1            [10] 1510 	pop	af
   083D 33            [ 6] 1511 	inc	sp
   083E D1            [10] 1512 	pop	de
   083F C1            [10] 1513 	pop	bc
                           1514 ;src\Test_Sprites.c:596: gradX++;
   0840 DD 34 FF      [23] 1515 	inc	-1 (ix)
                           1516 ;src\Test_Sprites.c:597: gradY++;
   0843 0C            [ 4] 1517 	inc	c
                           1518 ;src\Test_Sprites.c:592: for(i=0;i<660;i++)
   0844 13            [ 6] 1519 	inc	de
   0845 7B            [ 4] 1520 	ld	a,e
   0846 D6 94         [ 7] 1521 	sub	a, #0x94
   0848 7A            [ 4] 1522 	ld	a,d
   0849 DE 02         [ 7] 1523 	sbc	a, #0x02
   084B 38 D0         [12] 1524 	jr	C,00102$
                           1525 ;src\Test_Sprites.c:601: return;
   084D 33            [ 6] 1526 	inc	sp
   084E DD E1         [14] 1527 	pop	ix
   0850 C9            [10] 1528 	ret
                           1529 	.area _CODE
                           1530 	.area _INITIALIZER
                           1531 	.area _CABS (ABS)
